target datalayout = "e-m:e-p270:32:32-p271:32:32-p272:64:64-i64:64-i128:128-f80:128-n8:16:32:64-S128"
target triple = "x86_64-unknown-linux-gnu"

%struct.aiString = type { i32, [1024 x i8] }
%class.aiMatrix4x4t = type { float, float, float, float, float, float, float, float, float, float, float, float, float, float, float, float }
%struct.aiNode = type { %struct.aiString, %class.aiMatrix4x4t, ptr, i32, ptr, i32, ptr, ptr }

; Function Attrs: mustprogress uwtable
define hidden void @_Z17UpdateMeshIndicesP6aiNodePj(ptr noundef %node, ptr noundef %lookup) #3 {
entry:
  %node.addr = alloca ptr, align 8
  %lookup.addr = alloca ptr, align 8
  %n = alloca i32, align 4
  %n6 = alloca i32, align 4
  store ptr %node, ptr %node.addr, align 8
  store ptr %lookup, ptr %lookup.addr, align 8
  store i32 0, ptr %n, align 4
  br label %for.cond

for.cond:                                         ; preds = %for.inc, %entry
  %0 = load i32, ptr %n, align 4
  %1 = load ptr, ptr %node.addr, align 8
  %mNumMeshes = getelementptr inbounds %struct.aiNode, ptr %1, i32 0, i32 5
  %2 = load i32, ptr %mNumMeshes, align 8
  %cmp = icmp ult i32 %0, %2
  br i1 %cmp, label %for.body, label %for.end

for.body:                                         ; preds = %for.cond
  %3 = load ptr, ptr %lookup.addr, align 8
  %4 = load ptr, ptr %node.addr, align 8
  %mMeshes = getelementptr inbounds %struct.aiNode, ptr %4, i32 0, i32 6
  %5 = load ptr, ptr %mMeshes, align 8
  %6 = load i32, ptr %n, align 4
  %idxprom = zext i32 %6 to i64
  %arrayidx = getelementptr inbounds i32, ptr %5, i64 %idxprom
  %7 = load i32, ptr %arrayidx, align 4
  %idxprom1 = zext i32 %7 to i64
  %arrayidx2 = getelementptr inbounds i32, ptr %3, i64 %idxprom1
  %8 = load i32, ptr %arrayidx2, align 4
  %9 = load ptr, ptr %node.addr, align 8
  %mMeshes3 = getelementptr inbounds %struct.aiNode, ptr %9, i32 0, i32 6
  %10 = load ptr, ptr %mMeshes3, align 8
  %11 = load i32, ptr %n, align 4
  %idxprom4 = zext i32 %11 to i64
  %arrayidx5 = getelementptr inbounds i32, ptr %10, i64 %idxprom4
  store i32 %8, ptr %arrayidx5, align 4
  br label %for.inc

for.inc:                                          ; preds = %for.body
  %12 = load i32, ptr %n, align 4
  %inc = add i32 %12, 1
  store i32 %inc, ptr %n, align 4
  br label %for.cond, !llvm.loop !7

for.end:                                          ; preds = %for.cond
  store i32 0, ptr %n6, align 4
  br label %for.cond7

for.cond7:                                        ; preds = %for.inc12, %for.end
  %13 = load i32, ptr %n6, align 4
  %14 = load ptr, ptr %node.addr, align 8
  %mNumChildren = getelementptr inbounds %struct.aiNode, ptr %14, i32 0, i32 3
  %15 = load i32, ptr %mNumChildren, align 8
  %cmp8 = icmp ult i32 %13, %15
  br i1 %cmp8, label %for.body9, label %for.end14

for.body9:                                        ; preds = %for.cond7
  %16 = load ptr, ptr %node.addr, align 8
  %mChildren = getelementptr inbounds %struct.aiNode, ptr %16, i32 0, i32 4
  %17 = load ptr, ptr %mChildren, align 8
  %18 = load i32, ptr %n6, align 4
  %idxprom10 = zext i32 %18 to i64
  %arrayidx11 = getelementptr inbounds ptr, ptr %17, i64 %idxprom10
  %19 = load ptr, ptr %arrayidx11, align 8
  %20 = load ptr, ptr %lookup.addr, align 8
  call void @_Z17UpdateMeshIndicesP6aiNodePj(ptr noundef %19, ptr noundef %20)
  br label %for.inc12

for.inc12:                                        ; preds = %for.body9
  %21 = load i32, ptr %n6, align 4
  %inc13 = add i32 %21, 1
  store i32 %inc13, ptr %n6, align 4
  br label %for.cond7, !llvm.loop !8

for.end14:                                        ; preds = %for.cond7
  ret void
}