; Function Attrs: mustprogress nofree nosync nounwind memory(readwrite, inaccessiblemem: none) uwtable
define hidden void @_Z17UpdateMeshIndicesP6aiNodePj(ptr nocapture noundef readonly %node, ptr nocapture noundef readonly %lookup) local_unnamed_addr #5 {
entry:
  %mNumMeshes = getelementptr inbounds i8, ptr %node, i64 1120
  %0 = load i32, ptr %mNumMeshes, align 8
  %cmp11.not = icmp eq i32 %0, 0
  br i1 %cmp11.not, label %for.cond7.preheader, label %for.body.lr.ph

for.body.lr.ph:                                   ; preds = %entry
  %mMeshes = getelementptr inbounds i8, ptr %node, i64 1128
  br label %for.body

for.cond7.preheader:                              ; preds = %for.body, %entry
  %mNumChildren = getelementptr inbounds i8, ptr %node, i64 1104
  %1 = load i32, ptr %mNumChildren, align 8
  %cmp813.not = icmp eq i32 %1, 0
  br i1 %cmp813.not, label %for.end14, label %for.body9.lr.ph

for.body9.lr.ph:                                  ; preds = %for.cond7.preheader
  %mChildren = getelementptr inbounds i8, ptr %node, i64 1112
  br label %for.body9

for.body:                                         ; preds = %for.body.lr.ph, %for.body
  %indvars.iv = phi i64 [ 0, %for.body.lr.ph ], [ %indvars.iv.next, %for.body ]
  %2 = load ptr, ptr %mMeshes, align 8
  %arrayidx = getelementptr inbounds i32, ptr %2, i64 %indvars.iv
  %3 = load i32, ptr %arrayidx, align 4
  %idxprom1 = zext i32 %3 to i64
  %arrayidx2 = getelementptr inbounds i32, ptr %lookup, i64 %idxprom1
  %4 = load i32, ptr %arrayidx2, align 4
  store i32 %4, ptr %arrayidx, align 4
  %indvars.iv.next = add nuw nsw i64 %indvars.iv, 1
  %5 = load i32, ptr %mNumMeshes, align 8
  %6 = zext i32 %5 to i64
  %cmp = icmp ult i64 %indvars.iv.next, %6
  br i1 %cmp, label %for.body, label %for.cond7.preheader, !llvm.loop !7

for.body9:                                        ; preds = %for.body9.lr.ph, %for.body9
  %indvars.iv16 = phi i64 [ 0, %for.body9.lr.ph ], [ %indvars.iv.next17, %for.body9 ]
  %7 = load ptr, ptr %mChildren, align 8
  %arrayidx11 = getelementptr inbounds ptr, ptr %7, i64 %indvars.iv16
  %8 = load ptr, ptr %arrayidx11, align 8
  tail call void @_Z17UpdateMeshIndicesP6aiNodePj(ptr noundef %8, ptr noundef %lookup)
  %indvars.iv.next17 = add nuw nsw i64 %indvars.iv16, 1
  %9 = load i32, ptr %mNumChildren, align 8
  %10 = zext i32 %9 to i64
  %cmp8 = icmp ult i64 %indvars.iv.next17, %10
  br i1 %cmp8, label %for.body9, label %for.end14, !llvm.loop !8

for.end14:                                        ; preds = %for.body9, %for.cond7.preheader
  ret void
}